target datalayout = "e-m:e-p270:32:32-p271:32:32-p272:64:64-i64:64-i128:128-f80:128-n8:16:32:64-S128"
target triple = "x86_64-pc-linux-gnu"

%struct.ip_ranges_st = type { i32, ptr, ptr, i32 }
%struct.asn1_string_st = type { i32, i32, ptr, i64 }
%struct.IPAddressFamily_st = type { ptr, ptr }
%struct.IPAddressChoice_st = type { i32, %union.anon }
%union.anon = type { ptr }

@.str.14 = private unnamed_addr constant [24 x i8] c"../openssl/test/v3ext.c\00", align 1
@.str.56 = private unnamed_addr constant [5 x i8] c"addr\00", align 1
@.str.57 = private unnamed_addr constant [27 x i8] c"X509v3_addr_canonize(addr)\00", align 1
@.str.58 = private unnamed_addr constant [4 x i8] c"ip1\00", align 1
@.str.60 = private unnamed_addr constant [4 x i8] c"ip2\00", align 1
@.str.65 = private unnamed_addr constant [31 x i8] c"X509v3_addr_is_canonical(addr)\00", align 1
@.str.127 = private unnamed_addr constant [71 x i8] c"X509v3_addr_add_range(addr, ranges[0].afi, NULL, ip1->data, ip2->data)\00", align 1

; Function Attrs: inlinehint nounwind uwtable
define internal ptr @ossl_check_IPAddressFamily_freefunc_type(ptr noundef %0) #4 {
  %2 = alloca ptr, align 8
  store ptr %0, ptr %2, align 8, !tbaa !54
  %3 = load ptr, ptr %2, align 8, !tbaa !54
  ret ptr %3
}

; Function Attrs: inlinehint nounwind uwtable
define internal ptr @ossl_check_IPAddressFamily_type(ptr noundef %0) #4 {
  %2 = alloca ptr, align 8
  store ptr %0, ptr %2, align 8, !tbaa !39
  %3 = load ptr, ptr %2, align 8, !tbaa !39
  ret ptr %3
}

; Function Attrs: inlinehint nounwind uwtable
define internal ptr @ossl_check_IPAddressFamily_sk_type(ptr noundef %0) #4 {
  %2 = alloca ptr, align 8
  store ptr %0, ptr %2, align 8, !tbaa !21
  %3 = load ptr, ptr %2, align 8, !tbaa !21
  ret ptr %3
}

; Function Attrs: nounwind uwtable
define internal i32 @test_addr_fam_len() #0 {
  %1 = alloca i32, align 4
  %2 = alloca ptr, align 8
  %3 = alloca ptr, align 8
  %4 = alloca ptr, align 8
  %5 = alloca ptr, align 8
  %6 = alloca [6 x i8], align 1
  %7 = alloca i32, align 4
  %8 = alloca i32, align 4
  call void @llvm.lifetime.start.p0(i64 4, ptr %1) #6
  store i32 0, ptr %1, align 4, !tbaa !13
  call void @llvm.lifetime.start.p0(i64 8, ptr %2) #6
  store ptr null, ptr %2, align 8, !tbaa !21
  call void @llvm.lifetime.start.p0(i64 8, ptr %3) #6
  store ptr null, ptr %3, align 8, !tbaa !39
  call void @llvm.lifetime.start.p0(i64 8, ptr %4) #6
  store ptr null, ptr %4, align 8, !tbaa !17
  call void @llvm.lifetime.start.p0(i64 8, ptr %5) #6
  store ptr null, ptr %5, align 8, !tbaa !17
  call void @llvm.lifetime.start.p0(i64 6, ptr %6) #6
  call void @llvm.lifetime.start.p0(i64 4, ptr %7) #6
  call void @llvm.lifetime.start.p0(i64 4, ptr %8) #6
  store i32 1, ptr %8, align 4, !tbaa !13
  %9 = call ptr @OPENSSL_sk_new_null()
  store ptr %9, ptr %2, align 8, !tbaa !21
  %10 = load ptr, ptr %2, align 8, !tbaa !21
  %11 = call i32 @test_ptr(ptr noundef @.str.14, i32 noundef 241, ptr noundef @.str.56, ptr noundef %10)
  %12 = icmp ne i32 %11, 0
  br i1 %12, label %14, label %13

13:                                               ; preds = %0
  br label %184

14:                                               ; preds = %0
  %15 = load ptr, ptr getelementptr inbounds nuw (%struct.ip_ranges_st, ptr @ranges, i32 0, i32 1), align 8, !tbaa !23
  %16 = call ptr @a2i_IPADDRESS(ptr noundef %15)
  store ptr %16, ptr %4, align 8, !tbaa !17
  %17 = load ptr, ptr %4, align 8, !tbaa !17
  %18 = call i32 @test_ptr(ptr noundef @.str.14, i32 noundef 244, ptr noundef @.str.58, ptr noundef %17)
  %19 = icmp ne i32 %18, 0
  br i1 %19, label %21, label %20

20:                                               ; preds = %14
  br label %184

21:                                               ; preds = %14
  %22 = load ptr, ptr getelementptr inbounds nuw (%struct.ip_ranges_st, ptr @ranges, i32 0, i32 2), align 16, !tbaa !27
  %23 = call ptr @a2i_IPADDRESS(ptr noundef %22)
  store ptr %23, ptr %5, align 8, !tbaa !17
  %24 = load ptr, ptr %5, align 8, !tbaa !17
  %25 = call i32 @test_ptr(ptr noundef @.str.14, i32 noundef 247, ptr noundef @.str.60, ptr noundef %24)
  %26 = icmp ne i32 %25, 0
  br i1 %26, label %28, label %27

27:                                               ; preds = %21
  br label %184

28:                                               ; preds = %21
  %29 = load ptr, ptr %2, align 8, !tbaa !21
  %30 = load i32, ptr @ranges, align 16, !tbaa !29
  %31 = load ptr, ptr %4, align 8, !tbaa !17
  %32 = getelementptr inbounds nuw %struct.asn1_string_st, ptr %31, i32 0, i32 2
  %33 = load ptr, ptr %32, align 8, !tbaa !28
  %34 = load ptr, ptr %5, align 8, !tbaa !17
  %35 = getelementptr inbounds nuw %struct.asn1_string_st, ptr %34, i32 0, i32 2
  %36 = load ptr, ptr %35, align 8, !tbaa !28
  %37 = call i32 @X509v3_addr_add_range(ptr noundef %29, i32 noundef %30, ptr noundef null, ptr noundef %33, ptr noundef %36)
  %38 = icmp ne i32 %37, 0
  %39 = zext i1 %38 to i32
  %40 = call i32 @test_true(ptr noundef @.str.14, i32 noundef 249, ptr noundef @.str.127, i32 noundef %39)
  %41 = icmp ne i32 %40, 0
  br i1 %41, label %43, label %42

42:                                               ; preds = %28
  br label %184

43:                                               ; preds = %28
  %44 = load ptr, ptr %2, align 8, !tbaa !21
  %45 = call i32 @X509v3_addr_is_canonical(ptr noundef %44)
  %46 = icmp ne i32 %45, 0
  %47 = zext i1 %46 to i32
  %48 = call i32 @test_true(ptr noundef @.str.14, i32 noundef 251, ptr noundef @.str.65, i32 noundef %47)
  %49 = icmp ne i32 %48, 0
  br i1 %49, label %51, label %50

50:                                               ; preds = %43
  br label %184

51:                                               ; preds = %43
  %52 = load i32, ptr %8, align 4, !tbaa !13
  %53 = lshr i32 %52, 8
  %54 = and i32 %53, 255
  %55 = trunc i32 %54 to i8
  %56 = getelementptr inbounds [6 x i8], ptr %6, i64 0, i64 0
  store i8 %55, ptr %56, align 1, !tbaa !41
  %57 = load i32, ptr %8, align 4, !tbaa !13
  %58 = and i32 %57, 255
  %59 = trunc i32 %58 to i8
  %60 = getelementptr inbounds [6 x i8], ptr %6, i64 0, i64 1
  store i8 %59, ptr %60, align 1, !tbaa !41
  %61 = getelementptr inbounds [6 x i8], ptr %6, i64 0, i64 2
  store i8 13, ptr %61, align 1, !tbaa !41
  %62 = getelementptr inbounds [6 x i8], ptr %6, i64 0, i64 3
  store i8 14, ptr %62, align 1, !tbaa !41
  %63 = getelementptr inbounds [6 x i8], ptr %6, i64 0, i64 4
  store i8 10, ptr %63, align 1, !tbaa !41
  %64 = getelementptr inbounds [6 x i8], ptr %6, i64 0, i64 5
  store i8 13, ptr %64, align 1, !tbaa !41
  store i32 6, ptr %7, align 4, !tbaa !13
  %65 = call ptr @IPAddressFamily_new()
  store ptr %65, ptr %3, align 8, !tbaa !39
  %66 = icmp eq ptr %65, null
  br i1 %66, label %67, label %68

67:                                               ; preds = %51
  br label %184

68:                                               ; preds = %51
  %69 = load ptr, ptr %3, align 8, !tbaa !39
  %70 = getelementptr inbounds nuw %struct.IPAddressFamily_st, ptr %69, i32 0, i32 1
  %71 = load ptr, ptr %70, align 8, !tbaa !42
  %72 = icmp eq ptr %71, null
  br i1 %72, label %73, label %79

73:                                               ; preds = %68
  %74 = call ptr @IPAddressChoice_new()
  %75 = load ptr, ptr %3, align 8, !tbaa !39
  %76 = getelementptr inbounds nuw %struct.IPAddressFamily_st, ptr %75, i32 0, i32 1
  store ptr %74, ptr %76, align 8, !tbaa !42
  %77 = icmp eq ptr %74, null
  br i1 %77, label %78, label %79

78:                                               ; preds = %73
  br label %184

79:                                               ; preds = %73, %68
  %80 = load ptr, ptr %3, align 8, !tbaa !39
  %81 = getelementptr inbounds nuw %struct.IPAddressFamily_st, ptr %80, i32 0, i32 0
  %82 = load ptr, ptr %81, align 8, !tbaa !45
  %83 = icmp eq ptr %82, null
  br i1 %83, label %84, label %90

84:                                               ; preds = %79
  %85 = call ptr @ASN1_OCTET_STRING_new()
  %86 = load ptr, ptr %3, align 8, !tbaa !39
  %87 = getelementptr inbounds nuw %struct.IPAddressFamily_st, ptr %86, i32 0, i32 0
  store ptr %85, ptr %87, align 8, !tbaa !45
  %88 = icmp eq ptr %85, null
  br i1 %88, label %89, label %90

89:                                               ; preds = %84
  br label %184

90:                                               ; preds = %84, %79
  %91 = load ptr, ptr %3, align 8, !tbaa !39
  %92 = getelementptr inbounds nuw %struct.IPAddressFamily_st, ptr %91, i32 0, i32 0
  %93 = load ptr, ptr %92, align 8, !tbaa !45
  %94 = getelementptr inbounds [6 x i8], ptr %6, i64 0, i64 0
  %95 = load i32, ptr %7, align 4, !tbaa !13
  %96 = call i32 @ASN1_OCTET_STRING_set(ptr noundef %93, ptr noundef %94, i32 noundef %95)
  %97 = icmp ne i32 %96, 0
  br i1 %97, label %99, label %98

98:                                               ; preds = %90
  br label %184

99:                                               ; preds = %90
  %100 = load ptr, ptr %2, align 8, !tbaa !21
  %101 = call ptr @ossl_check_IPAddressFamily_sk_type(ptr noundef %100)
  %102 = load ptr, ptr %3, align 8, !tbaa !39
  %103 = call ptr @ossl_check_IPAddressFamily_type(ptr noundef %102)
  %104 = call i32 @OPENSSL_sk_push(ptr noundef %101, ptr noundef %103)
  %105 = icmp ne i32 %104, 0
  br i1 %105, label %107, label %106

106:                                              ; preds = %99
  br label %184

107:                                              ; preds = %99
  store ptr null, ptr %3, align 8, !tbaa !39
  %108 = load ptr, ptr %2, align 8, !tbaa !21
  %109 = call i32 @X509v3_addr_canonize(ptr noundef %108)
  %110 = icmp ne i32 %109, 0
  %111 = zext i1 %110 to i32
  %112 = call i32 @test_false(ptr noundef @.str.14, i32 noundef 279, ptr noundef @.str.57, i32 noundef %111)
  %113 = icmp ne i32 %112, 0
  br i1 %113, label %115, label %114

114:                                              ; preds = %107
  br label %184

115:                                              ; preds = %107
  %116 = load ptr, ptr %2, align 8, !tbaa !21
  %117 = call ptr @ossl_check_IPAddressFamily_sk_type(ptr noundef %116)
  %118 = call ptr @OPENSSL_sk_pop(ptr noundef %117)
  call void @IPAddressFamily_free(ptr noundef %118)
  %119 = load i32, ptr %8, align 4, !tbaa !13
  %120 = lshr i32 %119, 8
  %121 = and i32 %120, 255
  %122 = trunc i32 %121 to i8
  %123 = getelementptr inbounds [6 x i8], ptr %6, i64 0, i64 0
  store i8 %122, ptr %123, align 1, !tbaa !41
  %124 = load i32, ptr %8, align 4, !tbaa !13
  %125 = and i32 %124, 255
  %126 = trunc i32 %125 to i8
  %127 = getelementptr inbounds [6 x i8], ptr %6, i64 0, i64 1
  store i8 %126, ptr %127, align 1, !tbaa !41
  %128 = getelementptr inbounds [6 x i8], ptr %6, i64 0, i64 2
  store i8 1, ptr %128, align 1, !tbaa !41
  store i32 3, ptr %7, align 4, !tbaa !13
  %129 = call ptr @IPAddressFamily_new()
  store ptr %129, ptr %3, align 8, !tbaa !39
  %130 = icmp eq ptr %129, null
  br i1 %130, label %131, label %132

131:                                              ; preds = %115
  br label %184

132:                                              ; preds = %115
  %133 = load ptr, ptr %3, align 8, !tbaa !39
  %134 = getelementptr inbounds nuw %struct.IPAddressFamily_st, ptr %133, i32 0, i32 1
  %135 = load ptr, ptr %134, align 8, !tbaa !42
  %136 = icmp eq ptr %135, null
  br i1 %136, label %137, label %143

137:                                              ; preds = %132
  %138 = call ptr @IPAddressChoice_new()
  %139 = load ptr, ptr %3, align 8, !tbaa !39
  %140 = getelementptr inbounds nuw %struct.IPAddressFamily_st, ptr %139, i32 0, i32 1
  store ptr %138, ptr %140, align 8, !tbaa !42
  %141 = icmp eq ptr %138, null
  br i1 %141, label %142, label %143

142:                                              ; preds = %137
  br label %184

143:                                              ; preds = %137, %132
  %144 = load ptr, ptr %3, align 8, !tbaa !39
  %145 = getelementptr inbounds nuw %struct.IPAddressFamily_st, ptr %144, i32 0, i32 0
  %146 = load ptr, ptr %145, align 8, !tbaa !45
  %147 = icmp eq ptr %146, null
  br i1 %147, label %148, label %154

148:                                              ; preds = %143
  %149 = call ptr @ASN1_OCTET_STRING_new()
  %150 = load ptr, ptr %3, align 8, !tbaa !39
  %151 = getelementptr inbounds nuw %struct.IPAddressFamily_st, ptr %150, i32 0, i32 0
  store ptr %149, ptr %151, align 8, !tbaa !45
  %152 = icmp eq ptr %149, null
  br i1 %152, label %153, label %154

153:                                              ; preds = %148
  br label %184

154:                                              ; preds = %148, %143
  %155 = load ptr, ptr %3, align 8, !tbaa !39
  %156 = getelementptr inbounds nuw %struct.IPAddressFamily_st, ptr %155, i32 0, i32 0
  %157 = load ptr, ptr %156, align 8, !tbaa !45
  %158 = getelementptr inbounds [6 x i8], ptr %6, i64 0, i64 0
  %159 = load i32, ptr %7, align 4, !tbaa !13
  %160 = call i32 @ASN1_OCTET_STRING_set(ptr noundef %157, ptr noundef %158, i32 noundef %159)
  %161 = icmp ne i32 %160, 0
  br i1 %161, label %163, label %162

162:                                              ; preds = %154
  br label %184

163:                                              ; preds = %154
  %164 = load ptr, ptr %3, align 8, !tbaa !39
  %165 = getelementptr inbounds nuw %struct.IPAddressFamily_st, ptr %164, i32 0, i32 1
  %166 = load ptr, ptr %165, align 8, !tbaa !42
  %167 = getelementptr inbounds nuw %struct.IPAddressChoice_st, ptr %166, i32 0, i32 0
  store i32 0, ptr %167, align 8, !tbaa !46
  %168 = load ptr, ptr %2, align 8, !tbaa !21
  %169 = call ptr @ossl_check_IPAddressFamily_sk_type(ptr noundef %168)
  %170 = load ptr, ptr %3, align 8, !tbaa !39
  %171 = call ptr @ossl_check_IPAddressFamily_type(ptr noundef %170)
  %172 = call i32 @OPENSSL_sk_push(ptr noundef %169, ptr noundef %171)
  %173 = icmp ne i32 %172, 0
  br i1 %173, label %175, label %174

174:                                              ; preds = %163
  br label %184

175:                                              ; preds = %163
  store ptr null, ptr %3, align 8, !tbaa !39
  %176 = load ptr, ptr %2, align 8, !tbaa !21
  %177 = call i32 @X509v3_addr_canonize(ptr noundef %176)
  %178 = icmp ne i32 %177, 0
  %179 = zext i1 %178 to i32
  %180 = call i32 @test_true(ptr noundef @.str.14, i32 noundef 310, ptr noundef @.str.57, i32 noundef %179)
  %181 = icmp ne i32 %180, 0
  br i1 %181, label %183, label %182

182:                                              ; preds = %175
  br label %184

183:                                              ; preds = %175
  store i32 1, ptr %1, align 4, !tbaa !13
  br label %184

184:                                              ; preds = %183, %182, %174, %162, %153, %142, %131, %114, %106, %98, %89, %78, %67, %50, %42, %27, %20, %13
  %185 = load ptr, ptr %3, align 8, !tbaa !39
  call void @IPAddressFamily_free(ptr noundef %185)
  %186 = load ptr, ptr %2, align 8, !tbaa !21
  %187 = call ptr @ossl_check_IPAddressFamily_sk_type(ptr noundef %186)
  %188 = call ptr @ossl_check_IPAddressFamily_freefunc_type(ptr noundef @IPAddressFamily_free)
  call void @OPENSSL_sk_pop_free(ptr noundef %187, ptr noundef %188)
  %189 = load ptr, ptr %4, align 8, !tbaa !17
  call void @ASN1_OCTET_STRING_free(ptr noundef %189)
  %190 = load ptr, ptr %5, align 8, !tbaa !17
  call void @ASN1_OCTET_STRING_free(ptr noundef %190)
  %191 = load i32, ptr %1, align 4, !tbaa !13
  call void @llvm.lifetime.end.p0(i64 4, ptr %8) #6
  call void @llvm.lifetime.end.p0(i64 4, ptr %7) #6
  call void @llvm.lifetime.end.p0(i64 6, ptr %6) #6
  call void @llvm.lifetime.end.p0(i64 8, ptr %5) #6
  call void @llvm.lifetime.end.p0(i64 8, ptr %4) #6
  call void @llvm.lifetime.end.p0(i64 8, ptr %3) #6
  call void @llvm.lifetime.end.p0(i64 8, ptr %2) #6
  call void @llvm.lifetime.end.p0(i64 4, ptr %1) #6
  ret i32 %191
}