; Function Attrs: nounwind uwtable
define internal range(i32 0, 2) i32 @test_addr_fam_len() #1 {
  %1 = alloca [6 x i8], align 1
  call void @llvm.lifetime.start.p0(i64 6, ptr nonnull %1) #6
  %2 = tail call ptr @OPENSSL_sk_new_null() #6
  %3 = tail call i32 @test_ptr(ptr noundef nonnull @.str.14, i32 noundef 241, ptr noundef nonnull @.str.56, ptr noundef %2) #6
  %.not = icmp eq i32 %3, 0
  br i1 %.not, label %83, label %4

4:                                                ; preds = %0
  %5 = tail call ptr @a2i_IPADDRESS(ptr noundef nonnull @.str.66) #6
  %6 = tail call i32 @test_ptr(ptr noundef nonnull @.str.14, i32 noundef 244, ptr noundef nonnull @.str.58, ptr noundef %5) #6
  %.not41 = icmp eq i32 %6, 0
  br i1 %.not41, label %83, label %7

7:                                                ; preds = %4
  %8 = tail call ptr @a2i_IPADDRESS(ptr noundef nonnull @.str.67) #6
  %9 = tail call i32 @test_ptr(ptr noundef nonnull @.str.14, i32 noundef 247, ptr noundef nonnull @.str.60, ptr noundef %8) #6
  %.not42 = icmp eq i32 %9, 0
  br i1 %.not42, label %83, label %10

10:                                               ; preds = %7
  %11 = getelementptr inbounds nuw i8, ptr %5, i64 8
  %12 = load ptr, ptr %11, align 8, !tbaa !16
  %13 = getelementptr inbounds nuw i8, ptr %8, i64 8
  %14 = load ptr, ptr %13, align 8, !tbaa !16
  %15 = tail call i32 @X509v3_addr_add_range(ptr noundef %2, i32 noundef 1, ptr noundef null, ptr noundef %12, ptr noundef %14) #6
  %16 = icmp ne i32 %15, 0
  %17 = zext i1 %16 to i32
  %18 = tail call i32 @test_true(ptr noundef nonnull @.str.14, i32 noundef 249, ptr noundef nonnull @.str.127, i32 noundef %17) #6
  %.not43 = icmp eq i32 %18, 0
  br i1 %.not43, label %83, label %19

19:                                               ; preds = %10
  %20 = tail call i32 @X509v3_addr_is_canonical(ptr noundef %2) #6
  %21 = icmp ne i32 %20, 0
  %22 = zext i1 %21 to i32
  %23 = tail call i32 @test_true(ptr noundef nonnull @.str.14, i32 noundef 251, ptr noundef nonnull @.str.65, i32 noundef %22) #6
  %.not44 = icmp eq i32 %23, 0
  br i1 %.not44, label %83, label %24

24:                                               ; preds = %19
  store i8 0, ptr %1, align 1, !tbaa !25
  %25 = getelementptr inbounds nuw i8, ptr %1, i64 1
  store i8 1, ptr %25, align 1, !tbaa !25
  %26 = getelementptr inbounds nuw i8, ptr %1, i64 2
  store i8 13, ptr %26, align 1, !tbaa !25
  %27 = getelementptr inbounds nuw i8, ptr %1, i64 3
  store i8 14, ptr %27, align 1, !tbaa !25
  %28 = getelementptr inbounds nuw i8, ptr %1, i64 4
  store i8 10, ptr %28, align 1, !tbaa !25
  %29 = getelementptr inbounds nuw i8, ptr %1, i64 5
  store i8 13, ptr %29, align 1, !tbaa !25
  %30 = tail call ptr @IPAddressFamily_new() #6
  %31 = icmp eq ptr %30, null
  br i1 %31, label %83, label %32

32:                                               ; preds = %24
  %33 = getelementptr inbounds nuw i8, ptr %30, i64 8
  %34 = load ptr, ptr %33, align 8, !tbaa !19
  %35 = icmp eq ptr %34, null
  br i1 %35, label %36, label %39

36:                                               ; preds = %32
  %37 = tail call ptr @IPAddressChoice_new() #6
  store ptr %37, ptr %33, align 8, !tbaa !19
  %38 = icmp eq ptr %37, null
  br i1 %38, label %83, label %39

39:                                               ; preds = %36, %32
  %40 = load ptr, ptr %30, align 8, !tbaa !34
  %41 = icmp eq ptr %40, null
  br i1 %41, label %42, label %45

42:                                               ; preds = %39
  %43 = tail call ptr @ASN1_OCTET_STRING_new() #6
  store ptr %43, ptr %30, align 8, !tbaa !34
  %44 = icmp eq ptr %43, null
  br i1 %44, label %83, label %45

45:                                               ; preds = %42, %39
  %46 = phi ptr [ %43, %42 ], [ %40, %39 ]
  %47 = call i32 @ASN1_OCTET_STRING_set(ptr noundef nonnull %46, ptr noundef nonnull %1, i32 noundef 6) #6
  %.not45 = icmp eq i32 %47, 0
  br i1 %.not45, label %83, label %48

48:                                               ; preds = %45
  %49 = call i32 @OPENSSL_sk_push(ptr noundef %2, ptr noundef nonnull %30) #6
  %.not46 = icmp eq i32 %49, 0
  br i1 %.not46, label %83, label %50

50:                                               ; preds = %48
  %51 = call i32 @X509v3_addr_canonize(ptr noundef %2) #6
  %52 = icmp ne i32 %51, 0
  %53 = zext i1 %52 to i32
  %54 = call i32 @test_false(ptr noundef nonnull @.str.14, i32 noundef 279, ptr noundef nonnull @.str.57, i32 noundef %53) #6
  %.not47 = icmp eq i32 %54, 0
  br i1 %.not47, label %83, label %55

55:                                               ; preds = %50
  %56 = call ptr @OPENSSL_sk_pop(ptr noundef %2) #6
  call void @IPAddressFamily_free(ptr noundef %56) #6
  store i8 0, ptr %1, align 1, !tbaa !25
  store i8 1, ptr %25, align 1, !tbaa !25
  store i8 1, ptr %26, align 1, !tbaa !25
  %57 = call ptr @IPAddressFamily_new() #6
  %58 = icmp eq ptr %57, null
  br i1 %58, label %83, label %59

59:                                               ; preds = %55
  %60 = getelementptr inbounds nuw i8, ptr %57, i64 8
  %61 = load ptr, ptr %60, align 8, !tbaa !19
  %62 = icmp eq ptr %61, null
  br i1 %62, label %63, label %66

63:                                               ; preds = %59
  %64 = call ptr @IPAddressChoice_new() #6
  store ptr %64, ptr %60, align 8, !tbaa !19
  %65 = icmp eq ptr %64, null
  br i1 %65, label %83, label %66

66:                                               ; preds = %63, %59
  %67 = load ptr, ptr %57, align 8, !tbaa !34
  %68 = icmp eq ptr %67, null
  br i1 %68, label %69, label %72

69:                                               ; preds = %66
  %70 = call ptr @ASN1_OCTET_STRING_new() #6
  store ptr %70, ptr %57, align 8, !tbaa !34
  %71 = icmp eq ptr %70, null
  br i1 %71, label %83, label %72

72:                                               ; preds = %69, %66
  %73 = phi ptr [ %70, %69 ], [ %67, %66 ]
  %74 = call i32 @ASN1_OCTET_STRING_set(ptr noundef nonnull %73, ptr noundef nonnull %1, i32 noundef 3) #6
  %.not48 = icmp eq i32 %74, 0
  br i1 %.not48, label %83, label %75

75:                                               ; preds = %72
  %76 = load ptr, ptr %60, align 8, !tbaa !19
  store i32 0, ptr %76, align 8, !tbaa !23
  %77 = call i32 @OPENSSL_sk_push(ptr noundef %2, ptr noundef nonnull %57) #6
  %.not49 = icmp eq i32 %77, 0
  br i1 %.not49, label %83, label %78

78:                                               ; preds = %75
  %79 = call i32 @X509v3_addr_canonize(ptr noundef %2) #6
  %80 = icmp ne i32 %79, 0
  %81 = zext i1 %80 to i32
  %82 = call i32 @test_true(ptr noundef nonnull @.str.14, i32 noundef 310, ptr noundef nonnull @.str.57, i32 noundef %81) #6
  %.not50 = icmp ne i32 %82, 0
  %spec.select = zext i1 %.not50 to i32
  br label %83

83:                                               ; preds = %78, %75, %72, %69, %63, %55, %50, %48, %45, %42, %36, %24, %19, %10, %7, %4, %0
  %.037 = phi ptr [ null, %24 ], [ %30, %36 ], [ %30, %42 ], [ null, %55 ], [ %57, %63 ], [ %57, %69 ], [ %57, %75 ], [ %57, %72 ], [ null, %50 ], [ %30, %48 ], [ %30, %45 ], [ null, %19 ], [ null, %10 ], [ null, %7 ], [ null, %4 ], [ null, %0 ], [ null, %78 ]
  %.036 = phi ptr [ %5, %24 ], [ %5, %36 ], [ %5, %42 ], [ %5, %55 ], [ %5, %63 ], [ %5, %69 ], [ %5, %75 ], [ %5, %72 ], [ %5, %50 ], [ %5, %48 ], [ %5, %45 ], [ %5, %19 ], [ %5, %10 ], [ %5, %7 ], [ %5, %4 ], [ null, %0 ], [ %5, %78 ]
  %.035 = phi ptr [ %8, %24 ], [ %8, %36 ], [ %8, %42 ], [ %8, %55 ], [ %8, %63 ], [ %8, %69 ], [ %8, %75 ], [ %8, %72 ], [ %8, %50 ], [ %8, %48 ], [ %8, %45 ], [ %8, %19 ], [ %8, %10 ], [ %8, %7 ], [ null, %4 ], [ null, %0 ], [ %8, %78 ]
  %.0 = phi i32 [ 0, %24 ], [ 0, %36 ], [ 0, %42 ], [ 0, %55 ], [ 0, %63 ], [ 0, %69 ], [ 0, %75 ], [ 0, %72 ], [ 0, %50 ], [ 0, %48 ], [ 0, %45 ], [ 0, %19 ], [ 0, %10 ], [ 0, %7 ], [ 0, %4 ], [ 0, %0 ], [ %spec.select, %78 ]
  call void @IPAddressFamily_free(ptr noundef %.037) #6
  call void @OPENSSL_sk_pop_free(ptr noundef %2, ptr noundef nonnull @IPAddressFamily_free) #6
  call void @ASN1_OCTET_STRING_free(ptr noundef %.036) #6
  call void @ASN1_OCTET_STRING_free(ptr noundef %.035) #6
  call void @llvm.lifetime.end.p0(i64 6, ptr nonnull %1) #6
  ret i32 %.0
}